; ModuleID = 'source-C-CXX/41/1420.cpp'
source_filename = "source-C-CXX/41/1420.cpp"
target datalayout = "e-m:e-p270:32:32-p271:32:32-p272:64:64-i64:64-f80:128-n8:16:32:64-S128"
target triple = "x86_64-pc-linux-gnu"

%"class.std::ios_base::Init" = type { i8 }
%"class.std::basic_istream" = type { i32 (...)**, i64, %"class.std::basic_ios" }
%"class.std::basic_ios" = type { %"class.std::ios_base", %"class.std::basic_ostream"*, i8, i8, %"class.std::basic_streambuf"*, %"class.std::ctype"*, %"class.std::num_put"*, %"class.std::num_get"* }
%"class.std::ios_base" = type { i32 (...)**, i64, i64, i32, i32, i32, %"struct.std::ios_base::_Callback_list"*, %"struct.std::ios_base::_Words", [8 x %"struct.std::ios_base::_Words"], i32, %"struct.std::ios_base::_Words"*, %"class.std::locale" }
%"struct.std::ios_base::_Callback_list" = type { %"struct.std::ios_base::_Callback_list"*, void (i32, %"class.std::ios_base"*, i32)*, i32, i32 }
%"struct.std::ios_base::_Words" = type { i8*, i64 }
%"class.std::locale" = type { %"class.std::locale::_Impl"* }
%"class.std::locale::_Impl" = type { i32, %"class.std::locale::facet"**, i64, %"class.std::locale::facet"**, i8** }
%"class.std::locale::facet" = type <{ i32 (...)**, i32, [4 x i8] }>
%"class.std::basic_ostream" = type { i32 (...)**, %"class.std::basic_ios" }
%"class.std::basic_streambuf" = type { i32 (...)**, i8*, i8*, i8*, i8*, i8*, i8*, %"class.std::locale" }
%"class.std::ctype" = type <{ %"class.std::locale::facet.base", [4 x i8], %struct.__locale_struct*, i8, [7 x i8], i32*, i32*, i16*, i8, [256 x i8], [256 x i8], i8, [6 x i8] }>
%"class.std::locale::facet.base" = type <{ i32 (...)**, i32 }>
%struct.__locale_struct = type { [13 x %struct.__locale_data*], i16*, i32*, i32*, [13 x i8*] }
%struct.__locale_data = type opaque
%"class.std::num_put" = type { %"class.std::locale::facet.base", [4 x i8] }
%"class.std::num_get" = type { %"class.std::locale::facet.base", [4 x i8] }

@_ZStL8__ioinit = internal global %"class.std::ios_base::Init" zeroinitializer, align 1
@__dso_handle = external hidden global i8
@_ZSt3cin = external global %"class.std::basic_istream", align 8
@_ZSt4cout = external global %"class.std::basic_ostream", align 8
@llvm.global_ctors = appending global [1 x { i32, void ()*, i8* }] [{ i32, void ()*, i8* } { i32 65535, void ()* @_GLOBAL__sub_I_1420.cpp, i8* null }]

declare void @_ZNSt8ios_base4InitC1Ev(%"class.std::ios_base::Init"* nonnull align 1 dereferenceable(1)) unnamed_addr #0

; Function Attrs: nounwind
declare void @_ZNSt8ios_base4InitD1Ev(%"class.std::ios_base::Init"* nonnull align 1 dereferenceable(1)) unnamed_addr #1

; Function Attrs: nofree nounwind
declare i32 @__cxa_atexit(void (i8*)*, i8*, i8*) local_unnamed_addr #2

; Function Attrs: mustprogress norecurse sspstrong uwtable
define dso_local i32 @main() local_unnamed_addr #3 {
  %1 = alloca i8, align 1
  %2 = alloca i32, align 4
  %3 = alloca i64, align 8
  %4 = alloca [1000000 x i64], align 16
  %5 = bitcast i32* %2 to i8*
  call void @llvm.lifetime.start.p0i8(i64 4, i8* nonnull %5) #7
  %6 = bitcast i64* %3 to i8*
  call void @llvm.lifetime.start.p0i8(i64 8, i8* nonnull %6) #7
  %7 = bitcast [1000000 x i64]* %4 to i8*
  call void @llvm.lifetime.start.p0i8(i64 8000000, i8* nonnull %7) #7
  %8 = call nonnull align 8 dereferenceable(16) %"class.std::basic_istream"* @_ZNSirsERi(%"class.std::basic_istream"* nonnull align 8 dereferenceable(16) @_ZSt3cin, i32* nonnull align 4 dereferenceable(4) %2)
  %9 = load i32, i32* %2, align 4, !tbaa !5
  %10 = icmp slt i32 %9, 1
  br i1 %10, label %19, label %11

11:                                               ; preds = %0, %11
  %12 = phi i64 [ %15, %11 ], [ 1, %0 ]
  %13 = getelementptr inbounds [1000000 x i64], [1000000 x i64]* %4, i64 0, i64 %12
  %14 = call nonnull align 8 dereferenceable(16) %"class.std::basic_istream"* @_ZNSi10_M_extractIlEERSiRT_(%"class.std::basic_istream"* nonnull align 8 dereferenceable(16) @_ZSt3cin, i64* nonnull align 8 dereferenceable(8) %13)
  %15 = add nuw nsw i64 %12, 1
  %16 = load i32, i32* %2, align 4, !tbaa !5
  %17 = sext i32 %16 to i64
  %18 = icmp slt i64 %12, %17
  br i1 %18, label %11, label %19, !llvm.loop !9

19:                                               ; preds = %11, %0
  %20 = call nonnull align 8 dereferenceable(16) %"class.std::basic_istream"* @_ZNSi10_M_extractIlEERSiRT_(%"class.std::basic_istream"* nonnull align 8 dereferenceable(16) @_ZSt3cin, i64* nonnull align 8 dereferenceable(8) %3)
  %21 = load i64, i64* %3, align 8
  %22 = load i32, i32* %2, align 4, !tbaa !5
  %23 = icmp slt i32 %22, 1
  br i1 %23, label %125, label %26

24:                                               ; preds = %110
  %25 = icmp sgt i32 %111, 1
  br i1 %25, label %115, label %125

26:                                               ; preds = %19, %110
  %27 = phi i32 [ %111, %110 ], [ %22, %19 ]
  %28 = phi i32 [ %113, %110 ], [ 1, %19 ]
  %29 = sext i32 %28 to i64
  %30 = getelementptr inbounds [1000000 x i64], [1000000 x i64]* %4, i64 0, i64 %29
  %31 = load i64, i64* %30, align 8, !tbaa !11
  %32 = icmp eq i64 %31, %21
  br i1 %32, label %33, label %110

33:                                               ; preds = %26
  %34 = icmp slt i32 %28, %27
  br i1 %34, label %35, label %107

35:                                               ; preds = %33
  %36 = sext i32 %27 to i64
  %37 = sub nsw i64 %36, %29
  %38 = icmp ult i64 %37, 4
  br i1 %38, label %98, label %39

39:                                               ; preds = %35
  %40 = and i64 %37, -4
  %41 = add nsw i64 %40, %29
  %42 = add nsw i64 %40, -4
  %43 = lshr exact i64 %42, 2
  %44 = add nuw nsw i64 %43, 1
  %45 = and i64 %44, 1
  %46 = icmp eq i64 %42, 0
  br i1 %46, label %80, label %47

47:                                               ; preds = %39
  %48 = and i64 %44, 9223372036854775806
  br label %49

49:                                               ; preds = %49, %47
  %50 = phi i64 [ 0, %47 ], [ %77, %49 ]
  %51 = phi i64 [ %48, %47 ], [ %78, %49 ]
  %52 = add i64 %50, %29
  %53 = add nsw i64 %52, 1
  %54 = getelementptr inbounds [1000000 x i64], [1000000 x i64]* %4, i64 0, i64 %53
  %55 = bitcast i64* %54 to <2 x i64>*
  %56 = load <2 x i64>, <2 x i64>* %55, align 8, !tbaa !11
  %57 = getelementptr inbounds i64, i64* %54, i64 2
  %58 = bitcast i64* %57 to <2 x i64>*
  %59 = load <2 x i64>, <2 x i64>* %58, align 8, !tbaa !11
  %60 = getelementptr inbounds [1000000 x i64], [1000000 x i64]* %4, i64 0, i64 %52
  %61 = bitcast i64* %60 to <2 x i64>*
  store <2 x i64> %56, <2 x i64>* %61, align 8, !tbaa !11
  %62 = getelementptr inbounds i64, i64* %60, i64 2
  %63 = bitcast i64* %62 to <2 x i64>*
  store <2 x i64> %59, <2 x i64>* %63, align 8, !tbaa !11
  %64 = or i64 %50, 4
  %65 = add i64 %64, %29
  %66 = add nsw i64 %65, 1
  %67 = getelementptr inbounds [1000000 x i64], [1000000 x i64]* %4, i64 0, i64 %66
  %68 = bitcast i64* %67 to <2 x i64>*
  %69 = load <2 x i64>, <2 x i64>* %68, align 8, !tbaa !11
  %70 = getelementptr inbounds i64, i64* %67, i64 2
  %71 = bitcast i64* %70 to <2 x i64>*
  %72 = load <2 x i64>, <2 x i64>* %71, align 8, !tbaa !11
  %73 = getelementptr inbounds [1000000 x i64], [1000000 x i64]* %4, i64 0, i64 %65
  %74 = bitcast i64* %73 to <2 x i64>*
  store <2 x i64> %69, <2 x i64>* %74, align 8, !tbaa !11
  %75 = getelementptr inbounds i64, i64* %73, i64 2
  %76 = bitcast i64* %75 to <2 x i64>*
  store <2 x i64> %72, <2 x i64>* %76, align 8, !tbaa !11
  %77 = add nuw i64 %50, 8
  %78 = add i64 %51, -2
  %79 = icmp eq i64 %78, 0
  br i1 %79, label %80, label %49, !llvm.loop !13

80:                                               ; preds = %49, %39
  %81 = phi i64 [ 0, %39 ], [ %77, %49 ]
  %82 = icmp eq i64 %45, 0
  br i1 %82, label %96, label %83

83:                                               ; preds = %80
  %84 = add i64 %81, %29
  %85 = add nsw i64 %84, 1
  %86 = getelementptr inbounds [1000000 x i64], [1000000 x i64]* %4, i64 0, i64 %85
  %87 = bitcast i64* %86 to <2 x i64>*
  %88 = load <2 x i64>, <2 x i64>* %87, align 8, !tbaa !11
  %89 = getelementptr inbounds i64, i64* %86, i64 2
  %90 = bitcast i64* %89 to <2 x i64>*
  %91 = load <2 x i64>, <2 x i64>* %90, align 8, !tbaa !11
  %92 = getelementptr inbounds [1000000 x i64], [1000000 x i64]* %4, i64 0, i64 %84
  %93 = bitcast i64* %92 to <2 x i64>*
  store <2 x i64> %88, <2 x i64>* %93, align 8, !tbaa !11
  %94 = getelementptr inbounds i64, i64* %92, i64 2
  %95 = bitcast i64* %94 to <2 x i64>*
  store <2 x i64> %91, <2 x i64>* %95, align 8, !tbaa !11
  br label %96

96:                                               ; preds = %80, %83
  %97 = icmp eq i64 %37, %40
  br i1 %97, label %107, label %98

98:                                               ; preds = %35, %96
  %99 = phi i64 [ %29, %35 ], [ %41, %96 ]
  br label %100

100:                                              ; preds = %98, %100
  %101 = phi i64 [ %102, %100 ], [ %99, %98 ]
  %102 = add nsw i64 %101, 1
  %103 = getelementptr inbounds [1000000 x i64], [1000000 x i64]* %4, i64 0, i64 %102
  %104 = load i64, i64* %103, align 8, !tbaa !11
  %105 = getelementptr inbounds [1000000 x i64], [1000000 x i64]* %4, i64 0, i64 %101
  store i64 %104, i64* %105, align 8, !tbaa !11
  %106 = icmp eq i64 %102, %36
  br i1 %106, label %107, label %100, !llvm.loop !15

107:                                              ; preds = %100, %96, %33
  %108 = add nsw i32 %27, -1
  store i32 %108, i32* %2, align 4, !tbaa !5
  %109 = add nsw i32 %28, -1
  br label %110

110:                                              ; preds = %107, %26
  %111 = phi i32 [ %108, %107 ], [ %27, %26 ]
  %112 = phi i32 [ %109, %107 ], [ %28, %26 ]
  %113 = add nsw i32 %112, 1
  %114 = icmp slt i32 %112, %111
  br i1 %114, label %26, label %24, !llvm.loop !17

115:                                              ; preds = %24, %115
  %116 = phi i64 [ %121, %115 ], [ 1, %24 ]
  %117 = getelementptr inbounds [1000000 x i64], [1000000 x i64]* %4, i64 0, i64 %116
  %118 = load i64, i64* %117, align 8, !tbaa !11
  %119 = call nonnull align 8 dereferenceable(8) %"class.std::basic_ostream"* @_ZNSo9_M_insertIlEERSoT_(%"class.std::basic_ostream"* nonnull align 8 dereferenceable(8) @_ZSt4cout, i64 %118)
  call void @llvm.lifetime.start.p0i8(i64 1, i8* nonnull %1)
  store i8 32, i8* %1, align 1, !tbaa !18
  %120 = call nonnull align 8 dereferenceable(8) %"class.std::basic_ostream"* @_ZSt16__ostream_insertIcSt11char_traitsIcEERSt13basic_ostreamIT_T0_ES6_PKS3_l(%"class.std::basic_ostream"* nonnull align 8 dereferenceable(8) %119, i8* nonnull %1, i64 1)
  call void @llvm.lifetime.end.p0i8(i64 1, i8* nonnull %1)
  %121 = add nuw nsw i64 %116, 1
  %122 = load i32, i32* %2, align 4, !tbaa !5
  %123 = sext i32 %122 to i64
  %124 = icmp slt i64 %121, %123
  br i1 %124, label %115, label %125, !llvm.loop !19

125:                                              ; preds = %115, %24, %19
  %126 = phi i32 [ %111, %24 ], [ %22, %19 ], [ %122, %115 ]
  %127 = sext i32 %126 to i64
  %128 = getelementptr inbounds [1000000 x i64], [1000000 x i64]* %4, i64 0, i64 %127
  %129 = load i64, i64* %128, align 8, !tbaa !11
  %130 = call nonnull align 8 dereferenceable(8) %"class.std::basic_ostream"* @_ZNSo9_M_insertIlEERSoT_(%"class.std::basic_ostream"* nonnull align 8 dereferenceable(8) @_ZSt4cout, i64 %129)
  %131 = bitcast %"class.std::basic_ostream"* %130 to i8**
  %132 = load i8*, i8** %131, align 8, !tbaa !20
  %133 = getelementptr i8, i8* %132, i64 -24
  %134 = bitcast i8* %133 to i64*
  %135 = load i64, i64* %134, align 8
  %136 = bitcast %"class.std::basic_ostream"* %130 to i8*
  %137 = add nsw i64 %135, 240
  %138 = getelementptr inbounds i8, i8* %136, i64 %137
  %139 = bitcast i8* %138 to %"class.std::ctype"**
  %140 = load %"class.std::ctype"*, %"class.std::ctype"** %139, align 8, !tbaa !22
  %141 = icmp eq %"class.std::ctype"* %140, null
  br i1 %141, label %142, label %143

142:                                              ; preds = %125
  call void @_ZSt16__throw_bad_castv() #8
  unreachable

143:                                              ; preds = %125
  %144 = getelementptr inbounds %"class.std::ctype", %"class.std::ctype"* %140, i64 0, i32 8
  %145 = load i8, i8* %144, align 8, !tbaa !26
  %146 = icmp eq i8 %145, 0
  br i1 %146, label %150, label %147

147:                                              ; preds = %143
  %148 = getelementptr inbounds %"class.std::ctype", %"class.std::ctype"* %140, i64 0, i32 9, i64 10
  %149 = load i8, i8* %148, align 1, !tbaa !18
  br label %156

150:                                              ; preds = %143
  call void @_ZNKSt5ctypeIcE13_M_widen_initEv(%"class.std::ctype"* nonnull align 8 dereferenceable(570) %140)
  %151 = bitcast %"class.std::ctype"* %140 to i8 (%"class.std::ctype"*, i8)***
  %152 = load i8 (%"class.std::ctype"*, i8)**, i8 (%"class.std::ctype"*, i8)*** %151, align 8, !tbaa !20
  %153 = getelementptr inbounds i8 (%"class.std::ctype"*, i8)*, i8 (%"class.std::ctype"*, i8)** %152, i64 6
  %154 = load i8 (%"class.std::ctype"*, i8)*, i8 (%"class.std::ctype"*, i8)** %153, align 8
  %155 = call signext i8 %154(%"class.std::ctype"* nonnull align 8 dereferenceable(570) %140, i8 signext 10)
  br label %156

156:                                              ; preds = %147, %150
  %157 = phi i8 [ %149, %147 ], [ %155, %150 ]
  %158 = call nonnull align 8 dereferenceable(8) %"class.std::basic_ostream"* @_ZNSo3putEc(%"class.std::basic_ostream"* nonnull align 8 dereferenceable(8) %130, i8 signext %157)
  %159 = call nonnull align 8 dereferenceable(8) %"class.std::basic_ostream"* @_ZNSo5flushEv(%"class.std::basic_ostream"* nonnull align 8 dereferenceable(8) %158)
  call void @llvm.lifetime.end.p0i8(i64 8000000, i8* nonnull %7) #7
  call void @llvm.lifetime.end.p0i8(i64 8, i8* nonnull %6) #7
  call void @llvm.lifetime.end.p0i8(i64 4, i8* nonnull %5) #7
  ret i32 0
}

; Function Attrs: argmemonly mustprogress nofree nosync nounwind willreturn
declare void @llvm.lifetime.start.p0i8(i64 immarg, i8* nocapture) #4

declare nonnull align 8 dereferenceable(16) %"class.std::basic_istream"* @_ZNSirsERi(%"class.std::basic_istream"* nonnull align 8 dereferenceable(16), i32* nonnull align 4 dereferenceable(4)) local_unnamed_addr #0

; Function Attrs: argmemonly mustprogress nofree nosync nounwind willreturn
declare void @llvm.lifetime.end.p0i8(i64 immarg, i8* nocapture) #4

declare nonnull align 8 dereferenceable(16) %"class.std::basic_istream"* @_ZNSi10_M_extractIlEERSiRT_(%"class.std::basic_istream"* nonnull align 8 dereferenceable(16), i64* nonnull align 8 dereferenceable(8)) local_unnamed_addr #0

declare nonnull align 8 dereferenceable(8) %"class.std::basic_ostream"* @_ZNSo9_M_insertIlEERSoT_(%"class.std::basic_ostream"* nonnull align 8 dereferenceable(8), i64) local_unnamed_addr #0

declare nonnull align 8 dereferenceable(8) %"class.std::basic_ostream"* @_ZSt16__ostream_insertIcSt11char_traitsIcEERSt13basic_ostreamIT_T0_ES6_PKS3_l(%"class.std::basic_ostream"* nonnull align 8 dereferenceable(8), i8*, i64) local_unnamed_addr #0

declare nonnull align 8 dereferenceable(8) %"class.std::basic_ostream"* @_ZNSo3putEc(%"class.std::basic_ostream"* nonnull align 8 dereferenceable(8), i8 signext) local_unnamed_addr #0

declare nonnull align 8 dereferenceable(8) %"class.std::basic_ostream"* @_ZNSo5flushEv(%"class.std::basic_ostream"* nonnull align 8 dereferenceable(8)) local_unnamed_addr #0

; Function Attrs: noreturn
declare void @_ZSt16__throw_bad_castv() local_unnamed_addr #5

declare void @_ZNKSt5ctypeIcE13_M_widen_initEv(%"class.std::ctype"* nonnull align 8 dereferenceable(570)) local_unnamed_addr #0

; Function Attrs: sspstrong uwtable
define internal void @_GLOBAL__sub_I_1420.cpp() #6 section ".text.startup" {
  tail call void @_ZNSt8ios_base4InitC1Ev(%"class.std::ios_base::Init"* nonnull align 1 dereferenceable(1) @_ZStL8__ioinit)
  %1 = tail call i32 @__cxa_atexit(void (i8*)* bitcast (void (%"class.std::ios_base::Init"*)* @_ZNSt8ios_base4InitD1Ev to void (i8*)*), i8* getelementptr inbounds (%"class.std::ios_base::Init", %"class.std::ios_base::Init"* @_ZStL8__ioinit, i64 0, i32 0), i8* nonnull @__dso_handle) #7
  ret void
}


!llvm.module.flags = !{!0, !1, !2, !3}
!llvm.ident = !{!4}

!0 = !{i32 1, !"wchar_size", i32 4}
!1 = !{i32 7, !"PIC Level", i32 2}
!2 = !{i32 7, !"PIE Level", i32 2}
!3 = !{i32 7, !"uwtable", i32 1}
!4 = !{!"clang version 13.0.0"}
!5 = !{!6, !6, i64 0}
!6 = !{!"int", !7, i64 0}
!7 = !{!"omnipotent char", !8, i64 0}
!8 = !{!"Simple C++ TBAA"}
!9 = distinct !{!9, !10}
!10 = !{!"llvm.loop.mustprogress"}
!11 = !{!12, !12, i64 0}
!12 = !{!"long", !7, i64 0}
!13 = distinct !{!13, !10, !14}
!14 = !{!"llvm.loop.isvectorized", i32 1}
!15 = distinct !{!15, !10, !16, !14}
!16 = !{!"llvm.loop.unroll.runtime.disable"}
!17 = distinct !{!17, !10}
!18 = !{!7, !7, i64 0}
!19 = distinct !{!19, !10}
!20 = !{!21, !21, i64 0}
!21 = !{!"vtable pointer", !8, i64 0}
!22 = !{!23, !24, i64 240}
!23 = !{!"_ZTSSt9basic_iosIcSt11char_traitsIcEE", !24, i64 216, !7, i64 224, !25, i64 225, !24, i64 232, !24, i64 240, !24, i64 248, !24, i64 256}
!24 = !{!"any pointer", !7, i64 0}
!25 = !{!"bool", !7, i64 0}
!26 = !{!27, !7, i64 56}
!27 = !{!"_ZTSSt5ctypeIcE", !24, i64 16, !25, i64 24, !24, i64 32, !24, i64 40, !24, i64 48, !7, i64 56, !7, i64 57, !7, i64 313, !7, i64 569}
